; Function Attrs: nounwind uwtable
define internal range(i32 0, 2) i32 @hf_new_ssl_listener_from(ptr noundef readonly captures(none) %0) #1 {
  %2 = alloca %struct.radix_obj_st, align 8
  %3 = tail call i32 @test_size_t_lt(ptr noundef nonnull @.str.74, i32 noundef 670, ptr noundef nonnull @.str.93, ptr noundef nonnull @.str.86, i64 noundef 0, i64 noundef 8) #12
  %.not.i = icmp eq i32 %3, 0
  br i1 %.not.i, label %expect_slot_ssl.exit, label %4

4:                                                ; preds = %1
  %5 = tail call ptr @CRYPTO_THREAD_get_local(ptr noundef nonnull @radix_thread) #12
  %6 = getelementptr inbounds nuw i8, ptr %5, i64 104
  %7 = load ptr, ptr %6, align 8, !tbaa !49
  %8 = tail call i32 @test_ptr(ptr noundef nonnull @.str.74, i32 noundef 671, ptr noundef nonnull @.str.94, ptr noundef %7) #12
  %.not3.i = icmp ne i32 %8, 0
  %spec.select.i = zext i1 %.not3.i to i32
  br label %expect_slot_ssl.exit

expect_slot_ssl.exit:                             ; preds = %1, %4
  %.021 = phi ptr [ null, %1 ], [ %7, %4 ]
  %.0.i = phi i32 [ 0, %1 ], [ %spec.select.i, %4 ]
  %9 = tail call i32 @test_true(ptr noundef nonnull @.str.44, i32 noundef 239, ptr noundef nonnull @.str.87, i32 noundef %.0.i) #12
  %.not = icmp eq i32 %9, 0
  br i1 %.not, label %radix_activate_slot.exit, label %10

10:                                               ; preds = %expect_slot_ssl.exit
  %11 = load ptr, ptr %0, align 8, !tbaa !107
  %12 = getelementptr inbounds nuw i8, ptr %11, i64 112
  %13 = load ptr, ptr %12, align 8, !tbaa !100
  %14 = getelementptr inbounds nuw i8, ptr %11, i64 104
  %15 = load ptr, ptr %14, align 8, !tbaa !95
  %16 = ptrtoint ptr %13 to i64
  %17 = ptrtoint ptr %15 to i64
  %18 = sub i64 %16, %17
  %19 = tail call i32 @test_size_t_ge(ptr noundef nonnull @.str.42, i32 noundef 629, ptr noundef nonnull @.str.55, ptr noundef nonnull @.str.56, i64 noundef %18, i64 noundef 8) #12
  %.not.i12 = icmp eq i32 %19, 0
  br i1 %.not.i12, label %TERP_stk_pop.exit, label %20

20:                                               ; preds = %10
  %21 = load ptr, ptr %14, align 8, !tbaa !95
  %22 = load i64, ptr %21, align 1
  %23 = getelementptr inbounds nuw i8, ptr %21, i64 8
  store ptr %23, ptr %14, align 8, !tbaa !95
  br label %TERP_stk_pop.exit

TERP_stk_pop.exit:                                ; preds = %10, %20
  %.019 = phi i64 [ 0, %10 ], [ %22, %20 ]
  %.0.i13 = phi i32 [ 0, %10 ], [ 1, %20 ]
  %24 = tail call i32 @test_true(ptr noundef nonnull @.str.44, i32 noundef 240, ptr noundef nonnull @.str.45, i32 noundef %.0.i13) #12
  %.not6 = icmp eq i32 %24, 0
  br i1 %.not6, label %radix_activate_slot.exit, label %25

25:                                               ; preds = %TERP_stk_pop.exit
  %26 = load ptr, ptr %0, align 8, !tbaa !107
  %27 = getelementptr inbounds nuw i8, ptr %26, i64 112
  %28 = load ptr, ptr %27, align 8, !tbaa !100
  %29 = getelementptr inbounds nuw i8, ptr %26, i64 104
  %30 = load ptr, ptr %29, align 8, !tbaa !95
  %31 = ptrtoint ptr %28 to i64
  %32 = ptrtoint ptr %30 to i64
  %33 = sub i64 %31, %32
  %34 = tail call i32 @test_size_t_ge(ptr noundef nonnull @.str.42, i32 noundef 629, ptr noundef nonnull @.str.55, ptr noundef nonnull @.str.56, i64 noundef %33, i64 noundef 8) #12
  %.not.i14 = icmp eq i32 %34, 0
  br i1 %.not.i14, label %TERP_stk_pop.exit16, label %35

35:                                               ; preds = %25
  %36 = load ptr, ptr %29, align 8, !tbaa !95
  %37 = load i64, ptr %36, align 1
  %38 = inttoptr i64 %37 to ptr
  %39 = getelementptr inbounds nuw i8, ptr %36, i64 8
  store ptr %39, ptr %29, align 8, !tbaa !95
  br label %TERP_stk_pop.exit16

TERP_stk_pop.exit16:                              ; preds = %25, %35
  %.020 = phi ptr [ null, %25 ], [ %38, %35 ]
  %.0.i15 = phi i32 [ 0, %25 ], [ 1, %35 ]
  %40 = tail call i32 @test_true(ptr noundef nonnull @.str.44, i32 noundef 240, ptr noundef nonnull @.str.88, i32 noundef %.0.i15) #12
  %.not7 = icmp eq i32 %40, 0
  br i1 %.not7, label %radix_activate_slot.exit, label %41

41:                                               ; preds = %TERP_stk_pop.exit16
  call void @llvm.lifetime.start.p0(i64 24, ptr nonnull %2) #12
  store ptr %.020, ptr %2, align 8, !tbaa !46
  %42 = load ptr, ptr getelementptr inbounds nuw (i8, ptr @radix_process, i64 40), align 8, !tbaa !18
  %43 = call ptr @OPENSSL_LH_retrieve(ptr noundef %42, ptr noundef nonnull %2) #12
  call void @llvm.lifetime.end.p0(i64 24, ptr nonnull %2) #12
  %44 = call i32 @test_ptr_null(ptr noundef nonnull @.str.44, i32 noundef 242, ptr noundef nonnull @.str.89, ptr noundef %43) #12
  %.not8 = icmp eq i32 %44, 0
  br i1 %.not8, label %radix_activate_slot.exit, label %45

45:                                               ; preds = %41
  %46 = call ptr @SSL_new_listener_from(ptr noundef %.021, i64 noundef %.019) #12
  %47 = call i32 @test_ptr(ptr noundef nonnull @.str.44, i32 noundef 245, ptr noundef nonnull @.str.90, ptr noundef %46) #12
  %.not9 = icmp eq i32 %47, 0
  br i1 %.not9, label %radix_activate_slot.exit, label %48

48:                                               ; preds = %45
  %49 = call fastcc i32 @ssl_attach_bio_dgram(ptr noundef %46)
  %50 = call i32 @test_true(ptr noundef nonnull @.str.44, i32 noundef 248, ptr noundef nonnull @.str.91, i32 noundef %49) #12
  %.not10 = icmp eq i32 %50, 0
  br i1 %.not10, label %radix_activate_slot.exit, label %51

51:                                               ; preds = %48
  %52 = call fastcc i32 @RADIX_PROCESS_set_ssl(ptr noundef %.020, ptr noundef %46)
  %53 = call i32 @test_true(ptr noundef nonnull @.str.44, i32 noundef 251, ptr noundef nonnull @.str.92, i32 noundef %52) #12
  %.not11 = icmp eq i32 %53, 0
  br i1 %.not11, label %54, label %55

54:                                               ; preds = %51
  call void @SSL_free(ptr noundef %46) #12
  br label %radix_activate_slot.exit

55:                                               ; preds = %51
  %56 = call ptr @CRYPTO_THREAD_get_local(ptr noundef nonnull @radix_thread) #12
  %57 = getelementptr inbounds nuw i8, ptr %56, i64 40
  %58 = load ptr, ptr %57, align 8, !tbaa !44
  %.not.i.i = icmp eq ptr %58, null
  br i1 %.not.i.i, label %radix_activate_slot.exit, label %59

59:                                               ; preds = %55
  %60 = getelementptr inbounds nuw i8, ptr %58, i64 16
  %61 = load i8, ptr %60, align 8
  %62 = or i8 %61, 2
  store i8 %62, ptr %60, align 8
  br label %radix_activate_slot.exit

radix_activate_slot.exit:                         ; preds = %59, %55, %48, %45, %41, %TERP_stk_pop.exit16, %TERP_stk_pop.exit, %expect_slot_ssl.exit, %54
  %.0 = phi i32 [ 0, %54 ], [ 0, %48 ], [ 0, %45 ], [ 0, %41 ], [ 0, %TERP_stk_pop.exit16 ], [ 0, %TERP_stk_pop.exit ], [ 0, %expect_slot_ssl.exit ], [ 1, %55 ], [ 1, %59 ]
  ret i32 %.0
}